target datalayout = "e-m:e-p270:32:32-p271:32:32-p272:64:64-i64:64-i128:128-f80:128-n8:16:32:64-S128"
target triple = "x86_64-pc-linux-gnu"

; Function Attrs: nounwind null_pointer_is_valid sspstrong uwtable
define internal zeroext i1 @is_ascii_digit(i8 noundef signext %0) #6 {
  %2 = alloca i8, align 1
  store i8 %0, ptr %2, align 1
  %3 = load i8, ptr %2, align 1
  %4 = sext i8 %3 to i32
  %5 = sub i32 %4, 48
  %6 = icmp ult i32 %5, 10
  ret i1 %6
}

; Function Attrs: nounwind null_pointer_is_valid sspstrong uwtable
define internal zeroext i1 @is_ascii_alpha(i8 noundef signext %0) #6 {
  %2 = alloca i8, align 1
  store i8 %0, ptr %2, align 1
  %3 = load i8, ptr %2, align 1
  %4 = sext i8 %3 to i32
  %5 = or i32 %4, 32
  %6 = sub i32 %5, 97
  %7 = icmp ule i32 %6, 25
  ret i1 %7
}

; Function Attrs: nounwind null_pointer_is_valid sspstrong uwtable
define internal zeroext i1 @is_dbus_bus_name_valid(ptr noundef %0) #6 {
  %2 = alloca i1, align 1
  %3 = alloca ptr, align 8
  %4 = alloca i32, align 4
  %5 = alloca ptr, align 8
  %6 = alloca i8, align 1
  %7 = alloca i32, align 4
  %8 = alloca i64, align 8
  store ptr %0, ptr %3, align 8
  call void @llvm.lifetime.start.p0(i64 4, ptr %4) #11
  store i32 0, ptr %4, align 4
  call void @llvm.lifetime.start.p0(i64 8, ptr %5) #11
  %9 = load ptr, ptr %3, align 8
  store ptr %9, ptr %5, align 8
  call void @llvm.lifetime.start.p0(i64 1, ptr %6) #11
  store i8 0, ptr %6, align 1
  %10 = load ptr, ptr %5, align 8
  %11 = load i8, ptr %10, align 1
  %12 = sext i8 %11 to i32
  %13 = icmp eq i32 %12, 58
  br i1 %13, label %14, label %17

14:                                               ; preds = %1
  store i8 1, ptr %6, align 1
  %15 = load ptr, ptr %5, align 8
  %16 = getelementptr i8, ptr %15, i32 1
  store ptr %16, ptr %5, align 8
  br label %17

17:                                               ; preds = %14, %1
  br label %18

18:                                               ; preds = %87, %17
  %19 = load ptr, ptr %5, align 8
  %20 = load i8, ptr %19, align 1
  %21 = call zeroext i1 @is_ascii_alpha(i8 noundef signext %20)
  br i1 %21, label %40, label %22

22:                                               ; preds = %18
  %23 = load ptr, ptr %5, align 8
  %24 = load i8, ptr %23, align 1
  %25 = sext i8 %24 to i32
  %26 = icmp eq i32 %25, 95
  br i1 %26, label %40, label %27

27:                                               ; preds = %22
  %28 = load ptr, ptr %5, align 8
  %29 = load i8, ptr %28, align 1
  %30 = sext i8 %29 to i32
  %31 = icmp eq i32 %30, 45
  br i1 %31, label %40, label %32

32:                                               ; preds = %27
  %33 = load i8, ptr %6, align 1, !range !6, !noundef !7
  %34 = trunc i8 %33 to i1
  br i1 %34, label %35, label %39

35:                                               ; preds = %32
  %36 = load ptr, ptr %5, align 8
  %37 = load i8, ptr %36, align 1
  %38 = call zeroext i1 @is_ascii_digit(i8 noundef signext %37)
  br i1 %38, label %40, label %39

39:                                               ; preds = %35, %32
  store i1 false, ptr %2, align 1
  store i32 1, ptr %7, align 4
  br label %94

40:                                               ; preds = %35, %27, %22, %18
  %41 = load ptr, ptr %5, align 8
  %42 = getelementptr i8, ptr %41, i32 1
  store ptr %42, ptr %5, align 8
  %43 = load i32, ptr %4, align 4
  %44 = add i32 %43, 1
  store i32 %44, ptr %4, align 4
  br label %45

45:                                               ; preds = %65, %40
  %46 = load ptr, ptr %5, align 8
  %47 = load i8, ptr %46, align 1
  %48 = call zeroext i1 @is_ascii_alpha(i8 noundef signext %47)
  br i1 %48, label %63, label %49

49:                                               ; preds = %45
  %50 = load ptr, ptr %5, align 8
  %51 = load i8, ptr %50, align 1
  %52 = call zeroext i1 @is_ascii_digit(i8 noundef signext %51)
  br i1 %52, label %63, label %53

53:                                               ; preds = %49
  %54 = load ptr, ptr %5, align 8
  %55 = load i8, ptr %54, align 1
  %56 = sext i8 %55 to i32
  %57 = icmp eq i32 %56, 95
  br i1 %57, label %63, label %58

58:                                               ; preds = %53
  %59 = load ptr, ptr %5, align 8
  %60 = load i8, ptr %59, align 1
  %61 = sext i8 %60 to i32
  %62 = icmp eq i32 %61, 45
  br label %63

63:                                               ; preds = %58, %53, %49, %45
  %64 = phi i1 [ true, %53 ], [ true, %49 ], [ true, %45 ], [ %62, %58 ]
  br i1 %64, label %65, label %68

65:                                               ; preds = %63
  %66 = load ptr, ptr %5, align 8
  %67 = getelementptr i8, ptr %66, i32 1
  store ptr %67, ptr %5, align 8
  br label %45, !llvm.loop !15

68:                                               ; preds = %63
  %69 = load ptr, ptr %5, align 8
  %70 = load i8, ptr %69, align 1
  %71 = sext i8 %70 to i32
  %72 = icmp eq i32 %71, 0
  br i1 %72, label %73, label %86

73:                                               ; preds = %68
  call void @llvm.lifetime.start.p0(i64 8, ptr %8) #11
  %74 = load ptr, ptr %5, align 8
  %75 = load ptr, ptr %3, align 8
  %76 = ptrtoint ptr %74 to i64
  %77 = ptrtoint ptr %75 to i64
  %78 = sub i64 %76, %77
  store i64 %78, ptr %8, align 8
  %79 = load i32, ptr %4, align 4
  %80 = icmp sge i32 %79, 2
  br i1 %80, label %81, label %84

81:                                               ; preds = %73
  %82 = load i64, ptr %8, align 8
  %83 = icmp ule i64 %82, 255
  br label %84

84:                                               ; preds = %81, %73
  %85 = phi i1 [ false, %73 ], [ %83, %81 ]
  store i1 %85, ptr %2, align 1
  store i32 1, ptr %7, align 4
  call void @llvm.lifetime.end.p0(i64 8, ptr %8) #11
  br label %94

86:                                               ; preds = %68
  br label %87

87:                                               ; preds = %86
  %88 = load ptr, ptr %5, align 8
  %89 = getelementptr i8, ptr %88, i32 1
  store ptr %89, ptr %5, align 8
  %90 = load i8, ptr %88, align 1
  %91 = sext i8 %90 to i32
  %92 = icmp eq i32 %91, 46
  br i1 %92, label %18, label %93, !llvm.loop !16

93:                                               ; preds = %87
  store i1 false, ptr %2, align 1
  store i32 1, ptr %7, align 4
  br label %94

94:                                               ; preds = %93, %84, %39
  call void @llvm.lifetime.end.p0(i64 1, ptr %6) #11
  call void @llvm.lifetime.end.p0(i64 8, ptr %5) #11
  call void @llvm.lifetime.end.p0(i64 4, ptr %4) #11
  %95 = load i1, ptr %2, align 1
  ret i1 %95
}