; Function Attrs: nofree norecurse nosync nounwind null_pointer_is_valid sspstrong memory(argmem: read) uwtable
define internal fastcc zeroext i1 @is_dbus_bus_name_valid(ptr noundef %0) unnamed_addr #6 {
  %2 = load i8, ptr %0, align 1
  %.fr38 = freeze i8 %2
  %3 = icmp eq i8 %.fr38, 58
  %spec.select.idx = zext i1 %3 to i64
  %spec.select = getelementptr i8, ptr %0, i64 %spec.select.idx
  br i1 %3, label %.split, label %.split.us

.split.us:                                        ; preds = %1, %21
  %.023.us = phi i32 [ %11, %21 ], [ 0, %1 ]
  %.1.us = phi ptr [ %22, %21 ], [ %spec.select, %1 ]
  %4 = load i8, ptr %.1.us, align 1
  %5 = or i8 %4, 32
  %6 = sext i8 %5 to i32
  %7 = add nsw i32 %6, -97
  %8 = icmp ult i32 %7, 26
  br i1 %8, label %10, label %9

9:                                                ; preds = %.split.us
  switch i8 %4, label %.loopexit [
    i8 95, label %10
    i8 45, label %10
  ]

10:                                               ; preds = %9, %9, %.split.us
  %11 = add i32 %.023.us, 1
  br label %.critedge.us

.critedge.us:                                     ; preds = %.critedge.us.backedge, %10
  %.1.pn.us = phi ptr [ %.1.us, %10 ], [ %.2.us, %.critedge.us.backedge ]
  %.2.us = getelementptr i8, ptr %.1.pn.us, i64 1
  %12 = load i8, ptr %.2.us, align 1
  %13 = or i8 %12, 32
  %14 = sext i8 %13 to i32
  %15 = add nsw i32 %14, -97
  %16 = icmp ult i32 %15, 26
  %17 = sext i8 %12 to i32
  %18 = add nsw i32 %17, -48
  %19 = icmp ult i32 %18, 10
  %or.cond30.us = select i1 %16, i1 true, i1 %19
  br i1 %or.cond30.us, label %.critedge.us.backedge, label %20

20:                                               ; preds = %.critedge.us
  switch i8 %12, label %21 [
    i8 95, label %.critedge.us.backedge
    i8 45, label %.critedge.us.backedge
    i8 0, label %.split36.us
  ]

.critedge.us.backedge:                            ; preds = %20, %20, %.critedge.us
  br label %.critedge.us, !llvm.loop !16

21:                                               ; preds = %20
  %22 = getelementptr i8, ptr %.1.pn.us, i64 2
  %23 = icmp eq i8 %12, 46
  br i1 %23, label %.split.us, label %.loopexit, !llvm.loop !17

.split:                                           ; preds = %1, %51
  %.023 = phi i32 [ %35, %51 ], [ 0, %1 ]
  %.1 = phi ptr [ %52, %51 ], [ %spec.select, %1 ]
  %24 = load i8, ptr %.1, align 1
  %25 = or i8 %24, 32
  %26 = sext i8 %25 to i32
  %27 = add nsw i32 %26, -97
  %28 = icmp ult i32 %27, 26
  br i1 %28, label %34, label %29

29:                                               ; preds = %.split
  switch i8 %24, label %30 [
    i8 95, label %34
    i8 45, label %34
  ]

30:                                               ; preds = %29
  %31 = sext i8 %24 to i32
  %32 = add nsw i32 %31, -48
  %33 = icmp ult i32 %32, 10
  br i1 %33, label %34, label %.loopexit

34:                                               ; preds = %30, %29, %29, %.split
  %35 = add i32 %.023, 1
  br label %.critedge

.critedge:                                        ; preds = %.critedge.backedge, %34
  %.1.pn = phi ptr [ %.1, %34 ], [ %.2, %.critedge.backedge ]
  %.2 = getelementptr i8, ptr %.1.pn, i64 1
  %36 = load i8, ptr %.2, align 1
  %37 = or i8 %36, 32
  %38 = sext i8 %37 to i32
  %39 = add nsw i32 %38, -97
  %40 = icmp ult i32 %39, 26
  %41 = sext i8 %36 to i32
  %42 = add nsw i32 %41, -48
  %43 = icmp ult i32 %42, 10
  %or.cond30 = select i1 %40, i1 true, i1 %43
  br i1 %or.cond30, label %.critedge.backedge, label %44

44:                                               ; preds = %.critedge
  switch i8 %36, label %51 [
    i8 95, label %.critedge.backedge
    i8 45, label %.critedge.backedge
    i8 0, label %.split36.us
  ]

.critedge.backedge:                               ; preds = %44, %44, %.critedge
  br label %.critedge, !llvm.loop !16

.split36.us:                                      ; preds = %20, %44
  %.us-phi = phi i32 [ %35, %44 ], [ %11, %20 ]
  %.us-phi37 = phi ptr [ %.2, %44 ], [ %.2.us, %20 ]
  %45 = ptrtoint ptr %.us-phi37 to i64
  %46 = ptrtoint ptr %0 to i64
  %47 = sub i64 %45, %46
  %48 = icmp sgt i32 %.us-phi, 1
  %49 = icmp ult i64 %47, 256
  %50 = and i1 %48, %49
  br label %.loopexit

51:                                               ; preds = %44
  %52 = getelementptr i8, ptr %.1.pn, i64 2
  %53 = icmp eq i8 %36, 46
  br i1 %53, label %.split, label %.loopexit, !llvm.loop !17

.loopexit:                                        ; preds = %21, %9, %30, %51, %.split36.us
  %.0 = phi i1 [ %50, %.split36.us ], [ false, %51 ], [ false, %30 ], [ false, %9 ], [ false, %21 ]
  ret i1 %.0
}